target datalayout = "e-m:e-p270:32:32-p271:32:32-p272:64:64-i64:64-i128:128-f80:128-n8:16:32:64-S128"
target triple = "x86_64-pc-linux-gnu"

@_ZN4absl13time_internal4cctz6detail12_GLOBAL__N_17kDigitsE = internal constant [11 x i8] c"0123456789\00", align 1

; Function Attrs: mustprogress nounwind uwtable
define internal noundef ptr @_ZN4absl13time_internal4cctz6detail12_GLOBAL__N_18ParseIntIiEEPKcS6_iT_S7_PS7_(ptr noundef %0, i32 noundef %1, i32 noundef %2, i32 noundef %3, ptr noundef %4) #1 {
  %6 = alloca ptr, align 8
  %7 = alloca i32, align 4
  %8 = alloca i32, align 4
  %9 = alloca i32, align 4
  %10 = alloca ptr, align 8
  %11 = alloca i32, align 4
  %12 = alloca i8, align 1
  %13 = alloca i8, align 1
  %14 = alloca i32, align 4
  %15 = alloca ptr, align 8
  %16 = alloca ptr, align 8
  %17 = alloca i32, align 4
  %18 = alloca i32, align 4
  store ptr %0, ptr %6, align 8, !tbaa !15
  store i32 %1, ptr %7, align 4, !tbaa !34
  store i32 %2, ptr %8, align 4, !tbaa !34
  store i32 %3, ptr %9, align 4, !tbaa !34
  store ptr %4, ptr %10, align 8, !tbaa !75
  %19 = load ptr, ptr %6, align 8, !tbaa !15
  %20 = icmp ne ptr %19, null
  br i1 %20, label %21, label %134

21:                                               ; preds = %5
  call void @llvm.lifetime.start.p0(i64 4, ptr %11) #16
  store i32 -2147483648, ptr %11, align 4, !tbaa !34
  call void @llvm.lifetime.start.p0(i64 1, ptr %12) #16
  store i8 0, ptr %12, align 1, !tbaa !56
  call void @llvm.lifetime.start.p0(i64 1, ptr %13) #16
  store i8 0, ptr %13, align 1, !tbaa !56
  call void @llvm.lifetime.start.p0(i64 4, ptr %14) #16
  store i32 0, ptr %14, align 4, !tbaa !34
  %22 = load ptr, ptr %6, align 8, !tbaa !15
  %23 = load i8, ptr %22, align 1, !tbaa !17
  %24 = sext i8 %23 to i32
  %25 = icmp eq i32 %24, 45
  br i1 %25, label %26, label %38

26:                                               ; preds = %21
  store i8 1, ptr %13, align 1, !tbaa !56
  %27 = load i32, ptr %7, align 4, !tbaa !34
  %28 = icmp sle i32 %27, 0
  br i1 %28, label %33, label %29

29:                                               ; preds = %26
  %30 = load i32, ptr %7, align 4, !tbaa !34
  %31 = add nsw i32 %30, -1
  store i32 %31, ptr %7, align 4, !tbaa !34
  %32 = icmp ne i32 %31, 0
  br i1 %32, label %33, label %36

33:                                               ; preds = %29, %26
  %34 = load ptr, ptr %6, align 8, !tbaa !15
  %35 = getelementptr inbounds nuw i8, ptr %34, i32 1
  store ptr %35, ptr %6, align 8, !tbaa !15
  br label %37

36:                                               ; preds = %29
  store ptr null, ptr %6, align 8, !tbaa !15
  br label %37

37:                                               ; preds = %36, %33
  br label %38

38:                                               ; preds = %37, %21
  call void @llvm.lifetime.start.p0(i64 8, ptr %15) #16
  %39 = load ptr, ptr %6, align 8, !tbaa !15
  store ptr %39, ptr %15, align 8, !tbaa !15
  %40 = load ptr, ptr %15, align 8, !tbaa !15
  %41 = icmp ne ptr %40, null
  br i1 %41, label %42, label %133

42:                                               ; preds = %38
  br label %43

43:                                               ; preds = %90, %42
  call void @llvm.lifetime.start.p0(i64 8, ptr %16) #16
  %44 = load ptr, ptr %6, align 8, !tbaa !15
  %45 = load i8, ptr %44, align 1, !tbaa !17
  %46 = sext i8 %45 to i32
  %47 = call noundef ptr @strchr(ptr noundef @_ZN4absl13time_internal4cctz6detail12_GLOBAL__N_17kDigitsE, i32 noundef %46) #17
  store ptr %47, ptr %16, align 8, !tbaa !15
  %48 = load ptr, ptr %16, align 8, !tbaa !15
  %49 = icmp ne ptr %48, null
  br i1 %49, label %51, label %50

50:                                               ; preds = %43
  store i32 3, ptr %17, align 4
  br label %88

51:                                               ; preds = %43
  call void @llvm.lifetime.start.p0(i64 4, ptr %18) #16
  %52 = load ptr, ptr %16, align 8, !tbaa !15
  %53 = ptrtoint ptr %52 to i64
  %54 = sub i64 %53, ptrtoint (ptr @_ZN4absl13time_internal4cctz6detail12_GLOBAL__N_17kDigitsE to i64)
  %55 = trunc i64 %54 to i32
  store i32 %55, ptr %18, align 4, !tbaa !34
  %56 = load i32, ptr %18, align 4, !tbaa !34
  %57 = icmp sge i32 %56, 10
  br i1 %57, label %58, label %59

58:                                               ; preds = %51
  store i32 3, ptr %17, align 4
  br label %85

59:                                               ; preds = %51
  %60 = load i32, ptr %14, align 4, !tbaa !34
  %61 = icmp slt i32 %60, -214748364
  br i1 %61, label %62, label %63

62:                                               ; preds = %59
  store i8 1, ptr %12, align 1, !tbaa !56
  store i32 3, ptr %17, align 4
  br label %85

63:                                               ; preds = %59
  %64 = load i32, ptr %14, align 4, !tbaa !34
  %65 = mul nsw i32 %64, 10
  store i32 %65, ptr %14, align 4, !tbaa !34
  %66 = load i32, ptr %14, align 4, !tbaa !34
  %67 = load i32, ptr %18, align 4, !tbaa !34
  %68 = add nsw i32 -2147483648, %67
  %69 = icmp slt i32 %66, %68
  br i1 %69, label %70, label %71

70:                                               ; preds = %63
  store i8 1, ptr %12, align 1, !tbaa !56
  store i32 3, ptr %17, align 4
  br label %85

71:                                               ; preds = %63
  %72 = load i32, ptr %18, align 4, !tbaa !34
  %73 = load i32, ptr %14, align 4, !tbaa !34
  %74 = sub nsw i32 %73, %72
  store i32 %74, ptr %14, align 4, !tbaa !34
  %75 = load ptr, ptr %6, align 8, !tbaa !15
  %76 = getelementptr inbounds i8, ptr %75, i64 1
  store ptr %76, ptr %6, align 8, !tbaa !15
  %77 = load i32, ptr %7, align 4, !tbaa !34
  %78 = icmp sgt i32 %77, 0
  br i1 %78, label %79, label %84

79:                                               ; preds = %71
  %80 = load i32, ptr %7, align 4, !tbaa !34
  %81 = add nsw i32 %80, -1
  store i32 %81, ptr %7, align 4, !tbaa !34
  %82 = icmp eq i32 %81, 0
  br i1 %82, label %83, label %84

83:                                               ; preds = %79
  store i32 3, ptr %17, align 4
  br label %85

84:                                               ; preds = %79, %71
  store i32 0, ptr %17, align 4
  br label %85

85:                                               ; preds = %84, %83, %70, %62, %58
  call void @llvm.lifetime.end.p0(i64 4, ptr %18) #16
  %86 = load i32, ptr %17, align 4
  switch i32 %86, label %88 [
    i32 0, label %87
  ]

87:                                               ; preds = %85
  store i32 0, ptr %17, align 4
  br label %88

88:                                               ; preds = %87, %85, %50
  call void @llvm.lifetime.end.p0(i64 8, ptr %16) #16
  %89 = load i32, ptr %17, align 4
  switch i32 %89, label %136 [
    i32 0, label %90
    i32 3, label %91
  ]

90:                                               ; preds = %88
  br label %43, !llvm.loop !77

91:                                               ; preds = %88
  %92 = load ptr, ptr %6, align 8, !tbaa !15
  %93 = load ptr, ptr %15, align 8, !tbaa !15
  %94 = icmp ne ptr %92, %93
  br i1 %94, label %95, label %131

95:                                               ; preds = %91
  %96 = load i8, ptr %12, align 1, !tbaa !56, !range !48, !noundef !49
  %97 = trunc i8 %96 to i1
  br i1 %97, label %131, label %98

98:                                               ; preds = %95
  %99 = load i8, ptr %13, align 1, !tbaa !56, !range !48, !noundef !49
  %100 = trunc i8 %99 to i1
  br i1 %100, label %104, label %101

101:                                              ; preds = %98
  %102 = load i32, ptr %14, align 4, !tbaa !34
  %103 = icmp ne i32 %102, -2147483648
  br i1 %103, label %104, label %131

104:                                              ; preds = %101, %98
  %105 = load i8, ptr %13, align 1, !tbaa !56, !range !48, !noundef !49
  %106 = trunc i8 %105 to i1
  br i1 %106, label %107, label %110

107:                                              ; preds = %104
  %108 = load i32, ptr %14, align 4, !tbaa !34
  %109 = icmp ne i32 %108, 0
  br i1 %109, label %110, label %129

110:                                              ; preds = %107, %104
  %111 = load i8, ptr %13, align 1, !tbaa !56, !range !48, !noundef !49
  %112 = trunc i8 %111 to i1
  br i1 %112, label %116, label %113

113:                                              ; preds = %110
  %114 = load i32, ptr %14, align 4, !tbaa !34
  %115 = sub nsw i32 0, %114
  store i32 %115, ptr %14, align 4, !tbaa !34
  br label %116

116:                                              ; preds = %113, %110
  %117 = load i32, ptr %8, align 4, !tbaa !34
  %118 = load i32, ptr %14, align 4, !tbaa !34
  %119 = icmp sle i32 %117, %118
  br i1 %119, label %120, label %127

120:                                              ; preds = %116
  %121 = load i32, ptr %14, align 4, !tbaa !34
  %122 = load i32, ptr %9, align 4, !tbaa !34
  %123 = icmp sle i32 %121, %122
  br i1 %123, label %124, label %127

124:                                              ; preds = %120
  %125 = load i32, ptr %14, align 4, !tbaa !34
  %126 = load ptr, ptr %10, align 8, !tbaa !75
  store i32 %125, ptr %126, align 4, !tbaa !34
  br label %128

127:                                              ; preds = %120, %116
  store ptr null, ptr %6, align 8, !tbaa !15
  br label %128

128:                                              ; preds = %127, %124
  br label %130

129:                                              ; preds = %107
  store ptr null, ptr %6, align 8, !tbaa !15
  br label %130

130:                                              ; preds = %129, %128
  br label %132

131:                                              ; preds = %101, %95, %91
  store ptr null, ptr %6, align 8, !tbaa !15
  br label %132

132:                                              ; preds = %131, %130
  br label %133

133:                                              ; preds = %132, %38
  call void @llvm.lifetime.end.p0(i64 8, ptr %15) #16
  call void @llvm.lifetime.end.p0(i64 4, ptr %14) #16
  call void @llvm.lifetime.end.p0(i64 1, ptr %13) #16
  call void @llvm.lifetime.end.p0(i64 1, ptr %12) #16
  call void @llvm.lifetime.end.p0(i64 4, ptr %11) #16
  br label %134

134:                                              ; preds = %133, %5
  %135 = load ptr, ptr %6, align 8, !tbaa !15
  ret ptr %135

136:                                              ; preds = %88
  unreachable
}