; Function Attrs: mustprogress nofree nounwind memory(argmem: readwrite) uwtable
define internal fastcc noundef ptr @_ZN4absl13time_internal4cctz6detail12_GLOBAL__N_18ParseIntIiEEPKcS6_iT_S7_PS7_(ptr noundef readonly captures(address, ret: address, provenance) %0, i32 noundef range(i32 0, 3) %1, i32 noundef range(i32 0, 2) %2, i32 noundef range(i32 6, 1025) %3, ptr noundef nonnull writeonly captures(none) %4) unnamed_addr #4 {
  %.not68 = icmp eq ptr %0, null
  br i1 %.not68, label %.thread, label %6

6:                                                ; preds = %5
  %7 = load i8, ptr %0, align 1, !tbaa !13
  %8 = icmp eq i8 %7, 45
  br i1 %8, label %9, label %12

9:                                                ; preds = %6
  switch i32 %1, label %.fold.split [
    i32 0, label %10
    i32 1, label %.thread
  ]

.fold.split:                                      ; preds = %9
  br label %10

10:                                               ; preds = %9, %.fold.split
  %.143 = phi i32 [ %1, %9 ], [ 1, %.fold.split ]
  %11 = getelementptr inbounds nuw i8, ptr %0, i64 1
  %.pre = load i8, ptr %11, align 1, !tbaa !13
  br label %12

12:                                               ; preds = %10, %6
  %13 = phi i8 [ %.pre, %10 ], [ %7, %6 ]
  %.042 = phi i32 [ %.143, %10 ], [ %1, %6 ]
  %.1 = phi ptr [ %11, %10 ], [ %0, %6 ]
  %14 = sext i8 %13 to i32
  %memchr94 = tail call ptr @memchr(ptr noundef nonnull dereferenceable(1) @_ZN4absl13time_internal4cctz6detail12_GLOBAL__N_17kDigitsE, i32 %14, i64 11)
  %.not7195 = icmp eq ptr %memchr94, null
  br i1 %.not7195, label %.thread, label %.lr.ph

.lr.ph:                                           ; preds = %12, %27
  %memchr99 = phi ptr [ %memchr, %27 ], [ %memchr94, %12 ]
  %.398 = phi ptr [ %26, %27 ], [ %.1, %12 ]
  %.24497 = phi i32 [ %.345, %27 ], [ %.042, %12 ]
  %.05196 = phi i32 [ %25, %27 ], [ 0, %12 ]
  %15 = ptrtoint ptr %memchr99 to i64
  %16 = trunc i64 %15 to i32
  %17 = sub i32 %16, ptrtoint (ptr @_ZN4absl13time_internal4cctz6detail12_GLOBAL__N_17kDigitsE to i32)
  %18 = icmp sgt i32 %17, 9
  %19 = icmp slt i32 %.05196, -214748364
  %or.cond138 = select i1 %18, i1 true, i1 %19
  br i1 %or.cond138, label %select.unfold, label %20

20:                                               ; preds = %.lr.ph
  %21 = mul nsw i32 %.05196, 10
  %22 = or i32 %17, -2147483648
  %23 = icmp slt i32 %21, %22
  br i1 %23, label %select.unfold, label %24

24:                                               ; preds = %20
  %25 = sub nsw i32 %21, %17
  %26 = getelementptr inbounds nuw i8, ptr %.398, i64 1
  switch i32 %.24497, label %.fold.split133 [
    i32 0, label %27
    i32 1, label %select.unfold.thread
  ]

.fold.split133:                                   ; preds = %24
  br label %27

27:                                               ; preds = %24, %.fold.split133
  %.345 = phi i32 [ %.24497, %24 ], [ 1, %.fold.split133 ]
  %28 = load i8, ptr %26, align 1, !tbaa !13
  %29 = sext i8 %28 to i32
  %memchr = tail call ptr @memchr(ptr noundef nonnull dereferenceable(1) @_ZN4absl13time_internal4cctz6detail12_GLOBAL__N_17kDigitsE, i32 %29, i64 11)
  %.not71 = icmp eq ptr %memchr, null
  br i1 %.not71, label %select.unfold.thread, label %.lr.ph

select.unfold:                                    ; preds = %20, %.lr.ph
  %.152.ph = phi i32 [ -2147483640, %20 ], [ %.05196, %.lr.ph ]
  %.not72 = icmp eq ptr %.398, %.1
  br i1 %.not72, label %.thread, label %select.unfold.thread

select.unfold.thread:                             ; preds = %27, %24, %select.unfold
  %.4.ph125 = phi ptr [ %.398, %select.unfold ], [ %26, %24 ], [ %26, %27 ]
  %.not75124 = phi i1 [ %18, %select.unfold ], [ true, %24 ], [ true, %27 ]
  %.152.ph123 = phi i32 [ %.152.ph, %select.unfold ], [ %25, %24 ], [ %25, %27 ]
  %30 = icmp ne i32 %.152.ph123, -2147483648
  %or.cond = select i1 %8, i1 true, i1 %30
  %or.cond76 = select i1 %.not75124, i1 %or.cond, i1 false
  %or.cond76.not = xor i1 %or.cond76, true
  %31 = icmp eq i32 %.152.ph123, 0
  %or.cond3.not = select i1 %8, i1 %31, i1 false
  %or.cond80 = select i1 %or.cond76.not, i1 true, i1 %or.cond3.not
  br i1 %or.cond80, label %.thread, label %32

32:                                               ; preds = %select.unfold.thread
  %33 = sub nsw i32 0, %.152.ph123
  %spec.select = select i1 %8, i32 %.152.ph123, i32 %33
  %.not = icmp sgt i32 %2, %spec.select
  %.not74 = icmp sgt i32 %spec.select, %3
  %or.cond77 = or i1 %.not, %.not74
  br i1 %or.cond77, label %.thread, label %34

34:                                               ; preds = %32
  store i32 %spec.select, ptr %4, align 4, !tbaa !33
  br label %.thread

.thread:                                          ; preds = %12, %9, %34, %32, %select.unfold.thread, %select.unfold, %5
  %.0 = phi ptr [ null, %5 ], [ %.4.ph125, %34 ], [ null, %32 ], [ null, %select.unfold.thread ], [ null, %select.unfold ], [ null, %9 ], [ null, %12 ]
  ret ptr %.0
}